target datalayout = "e-m:e-p270:32:32-p271:32:32-p272:64:64-i64:64-i128:128-f80:128-n8:16:32:64-S128"
target triple = "x86_64-pc-linux-gnu"

%struct.PCF_FaceRec_ = type { %struct.FT_FaceRec_, %struct.FT_StreamRec_, ptr, ptr, ptr, %struct.PCF_TocRec_, %struct.PCF_AccelRec_, i32, ptr, i64, ptr, %struct.PCF_EncRec_, i64 }
%struct.FT_FaceRec_ = type { i64, i64, i64, i64, i64, ptr, ptr, i32, ptr, i32, ptr, %struct.FT_Generic_, %struct.FT_BBox_, i16, i16, i16, i16, i16, i16, i16, i16, ptr, ptr, ptr, ptr, ptr, ptr, %struct.FT_ListRec_, %struct.FT_Generic_, ptr, ptr }
%struct.FT_BBox_ = type { i64, i64, i64, i64 }
%struct.FT_ListRec_ = type { ptr, ptr }
%struct.FT_Generic_ = type { ptr, ptr }
%struct.FT_StreamRec_ = type { ptr, i64, i64, %union.FT_StreamDesc_, %union.FT_StreamDesc_, ptr, ptr, ptr, ptr, ptr }
%union.FT_StreamDesc_ = type { i64 }
%struct.PCF_TocRec_ = type { i64, i64, ptr }
%struct.PCF_AccelRec_ = type { i8, i8, i8, i8, i8, i8, i8, i64, i64, i64, %struct.PCF_MetricRec_, %struct.PCF_MetricRec_, %struct.PCF_MetricRec_, %struct.PCF_MetricRec_ }
%struct.PCF_MetricRec_ = type { i16, i16, i16, i16, i16, i16, i64 }
%struct.PCF_EncRec_ = type { i16, i16, i16, i16, i16, ptr }
%struct.PCF_TableRec_ = type { i64, i64, i64, i64 }

; Function Attrs: nounwind uwtable
define internal i32 @pcf_seek_to_table_type(ptr noundef %0, ptr noundef %1, i64 noundef %2, i64 noundef %3, ptr noundef %4, ptr noundef %5) #0 {
  %7 = alloca i32, align 4
  %8 = alloca ptr, align 8
  %9 = alloca ptr, align 8
  %10 = alloca i64, align 8
  %11 = alloca i64, align 8
  %12 = alloca ptr, align 8
  %13 = alloca ptr, align 8
  %14 = alloca i32, align 4
  %15 = alloca i64, align 8
  store ptr %0, ptr %8, align 8
  store ptr %1, ptr %9, align 8
  store i64 %2, ptr %10, align 8
  store i64 %3, ptr %11, align 8
  store ptr %4, ptr %12, align 8
  store ptr %5, ptr %13, align 8
  store i32 3, ptr %14, align 4
  store i64 0, ptr %15, align 8
  br label %16

16:                                               ; preds = %67, %6
  %17 = load i64, ptr %15, align 8
  %18 = load i64, ptr %10, align 8
  %19 = icmp ult i64 %17, %18
  br i1 %19, label %20, label %70

20:                                               ; preds = %16
  %21 = load ptr, ptr %9, align 8
  %22 = load i64, ptr %15, align 8
  %23 = getelementptr inbounds %struct.PCF_TableRec_, ptr %21, i64 %22
  %24 = getelementptr inbounds %struct.PCF_TableRec_, ptr %23, i32 0, i32 0
  %25 = load i64, ptr %24, align 8
  %26 = load i64, ptr %11, align 8
  %27 = icmp eq i64 %25, %26
  br i1 %27, label %28, label %66

28:                                               ; preds = %20
  %29 = load ptr, ptr %8, align 8
  %30 = getelementptr inbounds %struct.FT_StreamRec_, ptr %29, i32 0, i32 2
  %31 = load i64, ptr %30, align 8
  %32 = load ptr, ptr %9, align 8
  %33 = load i64, ptr %15, align 8
  %34 = getelementptr inbounds %struct.PCF_TableRec_, ptr %32, i64 %33
  %35 = getelementptr inbounds %struct.PCF_TableRec_, ptr %34, i32 0, i32 3
  %36 = load i64, ptr %35, align 8
  %37 = icmp ugt i64 %31, %36
  br i1 %37, label %38, label %39

38:                                               ; preds = %28
  store i32 83, ptr %14, align 4
  br label %71

39:                                               ; preds = %28
  %40 = load ptr, ptr %8, align 8
  %41 = load ptr, ptr %9, align 8
  %42 = load i64, ptr %15, align 8
  %43 = getelementptr inbounds %struct.PCF_TableRec_, ptr %41, i64 %42
  %44 = getelementptr inbounds %struct.PCF_TableRec_, ptr %43, i32 0, i32 3
  %45 = load i64, ptr %44, align 8
  %46 = load ptr, ptr %8, align 8
  %47 = getelementptr inbounds %struct.FT_StreamRec_, ptr %46, i32 0, i32 2
  %48 = load i64, ptr %47, align 8
  %49 = sub i64 %45, %48
  %50 = call i32 @FT_Stream_Skip(ptr noundef %40, i64 noundef %49)
  store i32 %50, ptr %14, align 4
  %51 = icmp ne i32 %50, 0
  br i1 %51, label %52, label %53

52:                                               ; preds = %39
  store i32 83, ptr %14, align 4
  br label %71

53:                                               ; preds = %39
  %54 = load ptr, ptr %9, align 8
  %55 = load i64, ptr %15, align 8
  %56 = getelementptr inbounds %struct.PCF_TableRec_, ptr %54, i64 %55
  %57 = getelementptr inbounds %struct.PCF_TableRec_, ptr %56, i32 0, i32 2
  %58 = load i64, ptr %57, align 8
  %59 = load ptr, ptr %13, align 8
  store i64 %58, ptr %59, align 8
  %60 = load ptr, ptr %9, align 8
  %61 = load i64, ptr %15, align 8
  %62 = getelementptr inbounds %struct.PCF_TableRec_, ptr %60, i64 %61
  %63 = getelementptr inbounds %struct.PCF_TableRec_, ptr %62, i32 0, i32 1
  %64 = load i64, ptr %63, align 8
  %65 = load ptr, ptr %12, align 8
  store i64 %64, ptr %65, align 8
  store i32 0, ptr %7, align 4
  br label %74

66:                                               ; preds = %20
  br label %67

67:                                               ; preds = %66
  %68 = load i64, ptr %15, align 8
  %69 = add i64 %68, 1
  store i64 %69, ptr %15, align 8
  br label %16, !llvm.loop !22

70:                                               ; preds = %16
  br label %71

71:                                               ; preds = %70, %52, %38
  %72 = load ptr, ptr %13, align 8
  store i64 0, ptr %72, align 8
  %73 = load i32, ptr %14, align 4
  store i32 %73, ptr %7, align 4
  br label %74

74:                                               ; preds = %71, %53
  %75 = load i32, ptr %7, align 4
  ret i32 %75
}

; Function Attrs: nounwind uwtable
define internal i32 @pcf_get_accel(ptr noundef %0, ptr noundef %1, i64 noundef %2) #0 {
  %4 = alloca ptr, align 8
  %5 = alloca ptr, align 8
  %6 = alloca i64, align 8
  %7 = alloca i64, align 8
  %8 = alloca i64, align 8
  %9 = alloca i32, align 4
  %10 = alloca ptr, align 8
  store ptr %0, ptr %4, align 8
  store ptr %1, ptr %5, align 8
  store i64 %2, ptr %6, align 8
  %11 = load ptr, ptr %5, align 8
  %12 = getelementptr inbounds %struct.PCF_FaceRec_, ptr %11, i32 0, i32 6
  store ptr %12, ptr %10, align 8
  %13 = load ptr, ptr %4, align 8
  %14 = load ptr, ptr %5, align 8
  %15 = getelementptr inbounds %struct.PCF_FaceRec_, ptr %14, i32 0, i32 5
  %16 = getelementptr inbounds %struct.PCF_TocRec_, ptr %15, i32 0, i32 2
  %17 = load ptr, ptr %16, align 8
  %18 = load ptr, ptr %5, align 8
  %19 = getelementptr inbounds %struct.PCF_FaceRec_, ptr %18, i32 0, i32 5
  %20 = getelementptr inbounds %struct.PCF_TocRec_, ptr %19, i32 0, i32 1
  %21 = load i64, ptr %20, align 8
  %22 = load i64, ptr %6, align 8
  %23 = call i32 @pcf_seek_to_table_type(ptr noundef %13, ptr noundef %17, i64 noundef %21, i64 noundef %22, ptr noundef %7, ptr noundef %8)
  store i32 %23, ptr %9, align 4
  %24 = load i32, ptr %9, align 4
  %25 = icmp ne i32 %24, 0
  br i1 %25, label %26, label %27

26:                                               ; preds = %3
  br label %192

27:                                               ; preds = %3
  %28 = load ptr, ptr %4, align 8
  %29 = call i32 @FT_Stream_ReadULongLE(ptr noundef %28, ptr noundef %9)
  %30 = zext i32 %29 to i64
  store i64 %30, ptr %7, align 8
  %31 = load i32, ptr %9, align 4
  %32 = icmp ne i32 %31, 0
  br i1 %32, label %33, label %34

33:                                               ; preds = %27
  br label %192

34:                                               ; preds = %27
  br label %35

35:                                               ; preds = %34
  br label %36

36:                                               ; preds = %35
  br label %37

37:                                               ; preds = %36
  br label %38

38:                                               ; preds = %37
  %39 = load i64, ptr %7, align 8
  %40 = and i64 %39, 4294967040
  %41 = icmp eq i64 %40, 0
  br i1 %41, label %47, label %42

42:                                               ; preds = %38
  %43 = load i64, ptr %7, align 8
  %44 = and i64 %43, 4294967040
  %45 = icmp eq i64 %44, 256
  br i1 %45, label %47, label %46

46:                                               ; preds = %42
  br label %192

47:                                               ; preds = %42, %38
  %48 = load i64, ptr %7, align 8
  %49 = and i64 %48, 4
  %50 = icmp ne i64 %49, 0
  %51 = select i1 %50, i32 1, i32 0
  %52 = icmp eq i32 %51, 1
  br i1 %52, label %53, label %60

53:                                               ; preds = %47
  %54 = load ptr, ptr %4, align 8
  %55 = load ptr, ptr %10, align 8
  %56 = call i32 @FT_Stream_ReadFields(ptr noundef %54, ptr noundef @pcf_accel_msb_header, ptr noundef %55)
  store i32 %56, ptr %9, align 4
  %57 = icmp ne i32 %56, 0
  br i1 %57, label %58, label %59

58:                                               ; preds = %53
  br label %192

59:                                               ; preds = %53
  br label %67

60:                                               ; preds = %47
  %61 = load ptr, ptr %4, align 8
  %62 = load ptr, ptr %10, align 8
  %63 = call i32 @FT_Stream_ReadFields(ptr noundef %61, ptr noundef @pcf_accel_header, ptr noundef %62)
  store i32 %63, ptr %9, align 4
  %64 = icmp ne i32 %63, 0
  br i1 %64, label %65, label %66

65:                                               ; preds = %60
  br label %192

66:                                               ; preds = %60
  br label %67

67:                                               ; preds = %66, %59
  br label %68

68:                                               ; preds = %67
  br label %69

69:                                               ; preds = %68
  br label %70

70:                                               ; preds = %69
  br label %71

71:                                               ; preds = %70
  br label %72

72:                                               ; preds = %71
  br label %73

73:                                               ; preds = %72
  %74 = load ptr, ptr %10, align 8
  %75 = getelementptr inbounds %struct.PCF_AccelRec_, ptr %74, i32 0, i32 7
  %76 = load i64, ptr %75, align 8
  %77 = icmp slt i64 %76, 0
  br i1 %77, label %78, label %83

78:                                               ; preds = %73
  %79 = load ptr, ptr %10, align 8
  %80 = getelementptr inbounds %struct.PCF_AccelRec_, ptr %79, i32 0, i32 7
  %81 = load i64, ptr %80, align 8
  %82 = sub nsw i64 0, %81
  br label %87

83:                                               ; preds = %73
  %84 = load ptr, ptr %10, align 8
  %85 = getelementptr inbounds %struct.PCF_AccelRec_, ptr %84, i32 0, i32 7
  %86 = load i64, ptr %85, align 8
  br label %87

87:                                               ; preds = %83, %78
  %88 = phi i64 [ %82, %78 ], [ %86, %83 ]
  %89 = icmp sgt i64 %88, 32767
  br i1 %89, label %90, label %101

90:                                               ; preds = %87
  %91 = load ptr, ptr %10, align 8
  %92 = getelementptr inbounds %struct.PCF_AccelRec_, ptr %91, i32 0, i32 7
  %93 = load i64, ptr %92, align 8
  %94 = icmp slt i64 %93, 0
  %95 = select i1 %94, i32 -32767, i32 32767
  %96 = sext i32 %95 to i64
  %97 = load ptr, ptr %10, align 8
  %98 = getelementptr inbounds %struct.PCF_AccelRec_, ptr %97, i32 0, i32 7
  store i64 %96, ptr %98, align 8
  br label %99

99:                                               ; preds = %90
  br label %100

100:                                              ; preds = %99
  br label %101

101:                                              ; preds = %100, %87
  %102 = load ptr, ptr %10, align 8
  %103 = getelementptr inbounds %struct.PCF_AccelRec_, ptr %102, i32 0, i32 8
  %104 = load i64, ptr %103, align 8
  %105 = icmp slt i64 %104, 0
  br i1 %105, label %106, label %111

106:                                              ; preds = %101
  %107 = load ptr, ptr %10, align 8
  %108 = getelementptr inbounds %struct.PCF_AccelRec_, ptr %107, i32 0, i32 8
  %109 = load i64, ptr %108, align 8
  %110 = sub nsw i64 0, %109
  br label %115

111:                                              ; preds = %101
  %112 = load ptr, ptr %10, align 8
  %113 = getelementptr inbounds %struct.PCF_AccelRec_, ptr %112, i32 0, i32 8
  %114 = load i64, ptr %113, align 8
  br label %115

115:                                              ; preds = %111, %106
  %116 = phi i64 [ %110, %106 ], [ %114, %111 ]
  %117 = icmp sgt i64 %116, 32767
  br i1 %117, label %118, label %129

118:                                              ; preds = %115
  %119 = load ptr, ptr %10, align 8
  %120 = getelementptr inbounds %struct.PCF_AccelRec_, ptr %119, i32 0, i32 8
  %121 = load i64, ptr %120, align 8
  %122 = icmp slt i64 %121, 0
  %123 = select i1 %122, i32 -32767, i32 32767
  %124 = sext i32 %123 to i64
  %125 = load ptr, ptr %10, align 8
  %126 = getelementptr inbounds %struct.PCF_AccelRec_, ptr %125, i32 0, i32 8
  store i64 %124, ptr %126, align 8
  br label %127

127:                                              ; preds = %118
  br label %128

128:                                              ; preds = %127
  br label %129

129:                                              ; preds = %128, %115
  br label %130

130:                                              ; preds = %129
  br label %131

131:                                              ; preds = %130
  %132 = load ptr, ptr %4, align 8
  %133 = load i64, ptr %7, align 8
  %134 = and i64 %133, -4294967041
  %135 = load ptr, ptr %10, align 8
  %136 = getelementptr inbounds %struct.PCF_AccelRec_, ptr %135, i32 0, i32 10
  %137 = call i32 @pcf_get_metric(ptr noundef %132, i64 noundef %134, ptr noundef %136)
  store i32 %137, ptr %9, align 4
  %138 = load i32, ptr %9, align 4
  %139 = icmp ne i32 %138, 0
  br i1 %139, label %140, label %141

140:                                              ; preds = %131
  br label %192

141:                                              ; preds = %131
  br label %142

142:                                              ; preds = %141
  br label %143

143:                                              ; preds = %142
  %144 = load ptr, ptr %4, align 8
  %145 = load i64, ptr %7, align 8
  %146 = and i64 %145, -4294967041
  %147 = load ptr, ptr %10, align 8
  %148 = getelementptr inbounds %struct.PCF_AccelRec_, ptr %147, i32 0, i32 11
  %149 = call i32 @pcf_get_metric(ptr noundef %144, i64 noundef %146, ptr noundef %148)
  store i32 %149, ptr %9, align 4
  %150 = load i32, ptr %9, align 4
  %151 = icmp ne i32 %150, 0
  br i1 %151, label %152, label %153

152:                                              ; preds = %143
  br label %192

153:                                              ; preds = %143
  %154 = load i64, ptr %7, align 8
  %155 = and i64 %154, 4294967040
  %156 = icmp eq i64 %155, 256
  br i1 %156, label %157, label %182

157:                                              ; preds = %153
  br label %158

158:                                              ; preds = %157
  br label %159

159:                                              ; preds = %158
  %160 = load ptr, ptr %4, align 8
  %161 = load i64, ptr %7, align 8
  %162 = and i64 %161, -4294967041
  %163 = load ptr, ptr %10, align 8
  %164 = getelementptr inbounds %struct.PCF_AccelRec_, ptr %163, i32 0, i32 12
  %165 = call i32 @pcf_get_metric(ptr noundef %160, i64 noundef %162, ptr noundef %164)
  store i32 %165, ptr %9, align 4
  %166 = load i32, ptr %9, align 4
  %167 = icmp ne i32 %166, 0
  br i1 %167, label %168, label %169

168:                                              ; preds = %159
  br label %192

169:                                              ; preds = %159
  br label %170

170:                                              ; preds = %169
  br label %171

171:                                              ; preds = %170
  %172 = load ptr, ptr %4, align 8
  %173 = load i64, ptr %7, align 8
  %174 = and i64 %173, -4294967041
  %175 = load ptr, ptr %10, align 8
  %176 = getelementptr inbounds %struct.PCF_AccelRec_, ptr %175, i32 0, i32 13
  %177 = call i32 @pcf_get_metric(ptr noundef %172, i64 noundef %174, ptr noundef %176)
  store i32 %177, ptr %9, align 4
  %178 = load i32, ptr %9, align 4
  %179 = icmp ne i32 %178, 0
  br i1 %179, label %180, label %181

180:                                              ; preds = %171
  br label %192

181:                                              ; preds = %171
  br label %191

182:                                              ; preds = %153
  %183 = load ptr, ptr %10, align 8
  %184 = getelementptr inbounds %struct.PCF_AccelRec_, ptr %183, i32 0, i32 12
  %185 = load ptr, ptr %10, align 8
  %186 = getelementptr inbounds %struct.PCF_AccelRec_, ptr %185, i32 0, i32 10
  call void @llvm.memcpy.p0.p0.i64(ptr align 8 %184, ptr align 8 %186, i64 24, i1 false)
  %187 = load ptr, ptr %10, align 8
  %188 = getelementptr inbounds %struct.PCF_AccelRec_, ptr %187, i32 0, i32 13
  %189 = load ptr, ptr %10, align 8
  %190 = getelementptr inbounds %struct.PCF_AccelRec_, ptr %189, i32 0, i32 11
  call void @llvm.memcpy.p0.p0.i64(ptr align 8 %188, ptr align 8 %190, i64 24, i1 false)
  br label %191

191:                                              ; preds = %182, %181
  br label %192

192:                                              ; preds = %191, %180, %168, %152, %140, %65, %58, %46, %33, %26
  %193 = load i32, ptr %9, align 4
  ret i32 %193
}