; Function Attrs: nounwind uwtable
define internal fastcc i32 @pcf_get_accel(ptr noundef %0, ptr noundef %1, i64 noundef %2) unnamed_addr #1 {
  %4 = alloca i32, align 4
  %5 = getelementptr inbounds i8, ptr %1, i64 376
  %6 = getelementptr inbounds i8, ptr %1, i64 368
  %7 = load ptr, ptr %6, align 8
  %8 = getelementptr inbounds i8, ptr %1, i64 360
  %9 = load i64, ptr %8, align 8
  %.not26.i = icmp eq i64 %9, 0
  br i1 %.not26.i, label %pcf_seek_to_table_type.exit.thread, label %.lr.ph.i

10:                                               ; preds = %.lr.ph.i
  %11 = add nuw i64 %.025.i, 1
  %exitcond.not.i = icmp eq i64 %11, %9
  br i1 %exitcond.not.i, label %pcf_seek_to_table_type.exit.thread, label %.lr.ph.i, !llvm.loop !15

.lr.ph.i:                                         ; preds = %3, %10
  %.025.i = phi i64 [ %11, %10 ], [ 0, %3 ]
  %12 = getelementptr inbounds %struct.PCF_TableRec_, ptr %7, i64 %.025.i
  %13 = load i64, ptr %12, align 8
  %14 = icmp eq i64 %13, %2
  br i1 %14, label %15, label %10

15:                                               ; preds = %.lr.ph.i
  %16 = getelementptr inbounds i8, ptr %0, i64 16
  %17 = load i64, ptr %16, align 8
  %18 = getelementptr inbounds i8, ptr %12, i64 24
  %19 = load i64, ptr %18, align 8
  %20 = icmp ugt i64 %17, %19
  br i1 %20, label %pcf_seek_to_table_type.exit.thread, label %21

21:                                               ; preds = %15
  %22 = sub i64 %19, %17
  %23 = tail call i32 @FT_Stream_Skip(ptr noundef nonnull %0, i64 noundef %22) #15
  %.not.i = icmp eq i32 %23, 0
  br i1 %.not.i, label %24, label %pcf_seek_to_table_type.exit.thread

24:                                               ; preds = %21
  store i32 0, ptr %4, align 4
  %25 = call i32 @FT_Stream_ReadULongLE(ptr noundef nonnull %0, ptr noundef nonnull %4) #15
  %26 = zext i32 %25 to i64
  %27 = load i32, ptr %4, align 4
  %.not34 = icmp eq i32 %27, 0
  br i1 %.not34, label %28, label %pcf_seek_to_table_type.exit.thread

28:                                               ; preds = %24
  %29 = and i64 %26, 4294967040
  %trunc = trunc nuw i64 %29 to i32
  switch i32 %trunc, label %pcf_seek_to_table_type.exit.thread [
    i32 0, label %30
    i32 256, label %30
  ]

30:                                               ; preds = %28, %28
  %31 = and i64 %26, 4
  %.not35 = icmp eq i64 %31, 0
  br i1 %.not35, label %34, label %32

32:                                               ; preds = %30
  %33 = call i32 @FT_Stream_ReadFields(ptr noundef nonnull %0, ptr noundef nonnull @pcf_accel_msb_header, ptr noundef nonnull %5) #15
  store i32 %33, ptr %4, align 4
  %.not37 = icmp eq i32 %33, 0
  br i1 %.not37, label %36, label %pcf_seek_to_table_type.exit.thread

34:                                               ; preds = %30
  %35 = call i32 @FT_Stream_ReadFields(ptr noundef nonnull %0, ptr noundef nonnull @pcf_accel_header, ptr noundef nonnull %5) #15
  store i32 %35, ptr %4, align 4
  %.not36 = icmp eq i32 %35, 0
  br i1 %.not36, label %36, label %pcf_seek_to_table_type.exit.thread

36:                                               ; preds = %34, %32
  %37 = getelementptr inbounds i8, ptr %1, i64 384
  %38 = load i64, ptr %37, align 8
  %39 = call i64 @llvm.abs.i64(i64 %38, i1 true)
  %40 = icmp ugt i64 %39, 32767
  br i1 %40, label %41, label %44

41:                                               ; preds = %36
  %42 = icmp slt i64 %38, 0
  %43 = select i1 %42, i64 -32767, i64 32767
  store i64 %43, ptr %37, align 8
  br label %44

44:                                               ; preds = %41, %36
  %45 = getelementptr inbounds i8, ptr %1, i64 392
  %46 = load i64, ptr %45, align 8
  %47 = call i64 @llvm.abs.i64(i64 %46, i1 true)
  %48 = icmp ugt i64 %47, 32767
  br i1 %48, label %49, label %52

49:                                               ; preds = %44
  %50 = icmp slt i64 %46, 0
  %51 = select i1 %50, i64 -32767, i64 32767
  store i64 %51, ptr %45, align 8
  br label %52

52:                                               ; preds = %49, %44
  %53 = and i64 %26, 255
  %54 = getelementptr inbounds i8, ptr %1, i64 408
  %55 = select i1 %.not35, ptr @pcf_metric_header, ptr @pcf_metric_msb_header
  %56 = call i32 @FT_Stream_ReadFields(ptr noundef nonnull %0, ptr noundef nonnull %55, ptr noundef nonnull %54) #15
  store i32 %56, ptr %4, align 4
  %.not38 = icmp eq i32 %56, 0
  br i1 %.not38, label %57, label %pcf_seek_to_table_type.exit.thread

57:                                               ; preds = %52
  %58 = getelementptr inbounds i8, ptr %1, i64 432
  %59 = call fastcc i32 @pcf_get_metric(ptr noundef nonnull %0, i64 noundef %53, ptr noundef nonnull %58)
  store i32 %59, ptr %4, align 4
  %.not39 = icmp eq i32 %59, 0
  br i1 %.not39, label %60, label %pcf_seek_to_table_type.exit.thread

60:                                               ; preds = %57
  %61 = icmp eq i64 %29, 256
  %62 = getelementptr inbounds i8, ptr %1, i64 456
  br i1 %61, label %63, label %68

63:                                               ; preds = %60
  %64 = call fastcc i32 @pcf_get_metric(ptr noundef nonnull %0, i64 noundef %53, ptr noundef nonnull %62)
  store i32 %64, ptr %4, align 4
  %.not40 = icmp eq i32 %64, 0
  br i1 %.not40, label %65, label %pcf_seek_to_table_type.exit.thread

65:                                               ; preds = %63
  %66 = getelementptr inbounds i8, ptr %1, i64 480
  %67 = call fastcc i32 @pcf_get_metric(ptr noundef nonnull %0, i64 noundef %53, ptr noundef nonnull %66)
  br label %pcf_seek_to_table_type.exit.thread

68:                                               ; preds = %60
  call void @llvm.memcpy.p0.p0.i64(ptr noundef nonnull align 8 dereferenceable(24) %62, ptr noundef nonnull align 8 dereferenceable(24) %54, i64 24, i1 false)
  %69 = getelementptr inbounds i8, ptr %1, i64 480
  call void @llvm.memcpy.p0.p0.i64(ptr noundef nonnull align 8 dereferenceable(24) %69, ptr noundef nonnull align 8 dereferenceable(24) %58, i64 24, i1 false)
  br label %pcf_seek_to_table_type.exit.thread

pcf_seek_to_table_type.exit.thread:               ; preds = %10, %3, %21, %15, %28, %65, %68, %63, %57, %52, %34, %32, %24
  %70 = phi i32 [ 0, %28 ], [ %67, %65 ], [ 0, %68 ], [ %64, %63 ], [ %59, %57 ], [ %56, %52 ], [ %35, %34 ], [ %33, %32 ], [ %27, %24 ], [ 3, %3 ], [ 83, %21 ], [ 83, %15 ], [ 3, %10 ]
  ret i32 %70
}